#include <math.h>
#include <stdio.h>
#include <stdlib.h>
#include <string.h>

main()
{
   long n,i,j,a[100000],k,x=0;
   scanf("%ld",&n);
   for(i=0;i<n;i++)scanf("%ld",&a[i]);
   scanf("%ld",&k);
   for(i=0;i<n-x;)
   { if(a[i]!=k){i++;continue;}
     if(a[i]==k&&i<n-1-x)
       {
	for(j=i+1;j<n-x;j++)a[j-1]=a[j];
	x++;
       }
       if(a[i]==k&&i==n-x-1){x++;break;}
   }
   if(n-x!=0){
   for(i=0;i<n-x-1;i++)printf("%ld ",a[i]);
   printf("%ld",a[n-x-1]);}


}